; Function Attrs: nounwind uwtable
define hidden void @X11_InitXfixes(ptr noundef readonly captures(none) %0) local_unnamed_addr #0 {
  %2 = alloca i32, align 4
  %3 = alloca i32, align 4
  %4 = alloca i32, align 4
  %5 = alloca i32, align 4
  %6 = alloca i32, align 4
  %7 = getelementptr inbounds nuw i8, ptr %0, i64 1656
  %8 = load ptr, ptr %7, align 8
  call void @llvm.lifetime.start.p0(i64 4, ptr nonnull %4) #7
  call void @llvm.lifetime.start.p0(i64 4, ptr nonnull %5) #7
  call void @llvm.lifetime.start.p0(i64 4, ptr nonnull %6) #7
  %9 = getelementptr inbounds nuw i8, ptr %8, i64 440
  %10 = load i64, ptr %9, align 8
  %11 = load i32, ptr @SDL_X11_HAVE_XFIXES, align 4
  %.not = icmp eq i32 %11, 0
  br i1 %.not, label %41, label %12

12:                                               ; preds = %1
  %13 = load ptr, ptr @X11_XQueryExtension, align 8
  %14 = load ptr, ptr %8, align 8
  %15 = call i32 %13(ptr noundef %14, ptr noundef nonnull @.str, ptr noundef nonnull %6, ptr noundef nonnull %4, ptr noundef nonnull %5) #7
  %.not11 = icmp eq i32 %15, 0
  br i1 %.not11, label %41, label %16

16:                                               ; preds = %12
  %17 = load i32, ptr %4, align 4
  store i32 %17, ptr @xfixes_selection_notify_event, align 4
  %18 = load ptr, ptr @X11_XFixesSelectSelectionInput, align 8
  %19 = load ptr, ptr %8, align 8
  %20 = getelementptr inbounds nuw i8, ptr %19, i64 232
  %21 = load ptr, ptr %20, align 8
  %22 = getelementptr inbounds nuw i8, ptr %19, i64 224
  %23 = load i32, ptr %22, align 8
  %24 = sext i32 %23 to i64
  %25 = getelementptr inbounds %struct.Screen, ptr %21, i64 %24, i32 2
  %26 = load i64, ptr %25, align 8
  %27 = call i32 %18(ptr noundef %19, i64 noundef %26, i64 noundef %10, i64 noundef 1) #7
  %28 = load ptr, ptr @X11_XFixesSelectSelectionInput, align 8
  %29 = load ptr, ptr %8, align 8
  %30 = getelementptr inbounds nuw i8, ptr %29, i64 232
  %31 = load ptr, ptr %30, align 8
  %32 = getelementptr inbounds nuw i8, ptr %29, i64 224
  %33 = load i32, ptr %32, align 8
  %34 = sext i32 %33 to i64
  %35 = getelementptr inbounds %struct.Screen, ptr %31, i64 %34, i32 2
  %36 = load i64, ptr %35, align 8
  %37 = call i32 %28(ptr noundef %29, i64 noundef %36, i64 noundef 1, i64 noundef 1) #7
  %38 = load ptr, ptr %8, align 8
  call void @llvm.lifetime.start.p0(i64 4, ptr nonnull %2)
  call void @llvm.lifetime.start.p0(i64 4, ptr nonnull %3)
  store i32 5, ptr %2, align 4
  store i32 0, ptr %3, align 4
  %39 = load ptr, ptr @X11_XFixesQueryVersion, align 8
  %40 = call i32 %39(ptr noundef %38, ptr noundef nonnull %2, ptr noundef nonnull %3) #7
  call void @llvm.lifetime.end.p0(i64 4, ptr nonnull %2)
  call void @llvm.lifetime.end.p0(i64 4, ptr nonnull %3)
  br label %41

41:                                               ; preds = %16, %1, %12
  call void @llvm.lifetime.end.p0(i64 4, ptr nonnull %6) #7
  call void @llvm.lifetime.end.p0(i64 4, ptr nonnull %5) #7
  call void @llvm.lifetime.end.p0(i64 4, ptr nonnull %4) #7
  ret void
}